Archive member included to satisfy reference by file (symbol)

/home/zaccaria/Scrivania/Proj/ZerOS/toolchain/i686-elf/lib/gcc/i686-elf/14.2.0/libgcc.a(_udivdi3.o)
                              /home/zaccaria/Scrivania/Proj/ZerOS/build/kernel/c/./include_src/std/stdio.obj (__udivdi3)
/home/zaccaria/Scrivania/Proj/ZerOS/toolchain/i686-elf/lib/gcc/i686-elf/14.2.0/libgcc.a(_umoddi3.o)
                              /home/zaccaria/Scrivania/Proj/ZerOS/build/kernel/c/./include_src/std/stdio.obj (__umoddi3)

Discarded input sections

 .group         0x00000000        0x8 /home/zaccaria/Scrivania/Proj/ZerOS/build/kernel/cpp/./include_src/ps2/keyboard/ps2_keyboard.obj
 .group         0x00000000        0x8 /home/zaccaria/Scrivania/Proj/ZerOS/build/kernel/cpp/./include_src/ps2/ps2_driver.obj
 .group         0x00000000        0x8 /home/zaccaria/Scrivania/Proj/ZerOS/build/kernel/cpp/./include_src/hal/peripherals/keyboard/keyboard_layout.obj

Memory Configuration

Name             Origin             Length             Attributes
*default*        0x00000000         0xffffffff

Linker script and memory map

LOAD /home/zaccaria/Scrivania/Proj/ZerOS/build/kernel/asm/./include_src/i686/idt.obj
LOAD /home/zaccaria/Scrivania/Proj/ZerOS/build/kernel/asm/./include_src/i686/isr.obj
LOAD /home/zaccaria/Scrivania/Proj/ZerOS/build/kernel/asm/./include_src/i686/io.obj
LOAD /home/zaccaria/Scrivania/Proj/ZerOS/build/kernel/asm/./include_src/i686/gdt.obj
LOAD /home/zaccaria/Scrivania/Proj/ZerOS/build/kernel/c/./include_src/util/error.obj
LOAD /home/zaccaria/Scrivania/Proj/ZerOS/build/kernel/c/./include_src/std/stdio.obj
LOAD /home/zaccaria/Scrivania/Proj/ZerOS/build/kernel/c/./include_src/std/string.obj
LOAD /home/zaccaria/Scrivania/Proj/ZerOS/build/kernel/c/./include_src/i686/gdt.obj
LOAD /home/zaccaria/Scrivania/Proj/ZerOS/build/kernel/c/./include_src/i686/isr.obj
LOAD /home/zaccaria/Scrivania/Proj/ZerOS/build/kernel/c/./include_src/i686/io.obj
LOAD /home/zaccaria/Scrivania/Proj/ZerOS/build/kernel/c/./include_src/i686/isrs_generated.obj
LOAD /home/zaccaria/Scrivania/Proj/ZerOS/build/kernel/c/./include_src/i686/idt.obj
LOAD /home/zaccaria/Scrivania/Proj/ZerOS/build/kernel/cpp/./include_src/gccdefs/purevirtual.obj
LOAD /home/zaccaria/Scrivania/Proj/ZerOS/build/kernel/cpp/./include_src/ps2/keyboard/ps2_keyboard.obj
LOAD /home/zaccaria/Scrivania/Proj/ZerOS/build/kernel/cpp/./include_src/ps2/ps2_driver.obj
LOAD /home/zaccaria/Scrivania/Proj/ZerOS/build/kernel/cpp/./include_src/hal/hal.obj
LOAD /home/zaccaria/Scrivania/Proj/ZerOS/build/kernel/cpp/./include_src/hal/peripherals/keyboard/keyboard.obj
LOAD /home/zaccaria/Scrivania/Proj/ZerOS/build/kernel/cpp/./include_src/hal/peripherals/keyboard/keyboard_layout.obj
LOAD /home/zaccaria/Scrivania/Proj/ZerOS/build/kernel/cpp/./include_src/hal/peripherals/keyboard/keystate_map.obj
LOAD /home/zaccaria/Scrivania/Proj/ZerOS/build/kernel/cpp/./include_src/i686/pic.obj
LOAD /home/zaccaria/Scrivania/Proj/ZerOS/build/kernel/cpp/./include_src/i686/irq.obj
LOAD /home/zaccaria/Scrivania/Proj/ZerOS/build/kernel/cpp/./main.obj
LOAD /home/zaccaria/Scrivania/Proj/ZerOS/toolchain/i686-elf/lib/gcc/i686-elf/14.2.0/libgcc.a
                0x00100000                        phys = 0x100000
                0x00100000                        . = phys

.entry          0x00100000       0x6a
                0x00100000                        __entry_start = .
 *(.entry)
 .entry         0x00100000       0x6a /home/zaccaria/Scrivania/Proj/ZerOS/build/kernel/cpp/./main.obj
                0x00100000                start

.text           0x00100070     0x40be
                0x00100070                        __text_start = .
 *(.text)
 .text          0x00100070        0xd /home/zaccaria/Scrivania/Proj/ZerOS/build/kernel/asm/./include_src/i686/idt.obj
                0x00100070                i686_idt_load
 *fill*         0x0010007d        0x3 
 .text          0x00100080      0xa70 /home/zaccaria/Scrivania/Proj/ZerOS/build/kernel/asm/./include_src/i686/isr.obj
                0x00100080                i686_isr0
                0x00100089                i686_isr1
                0x00100092                i686_isr2
                0x0010009b                i686_isr3
                0x001000a4                i686_isr4
                0x001000ad                i686_isr5
                0x001000b6                i686_isr6
                0x001000bf                i686_isr7
                0x001000c8                i686_isr8
                0x001000cf                i686_isr9
                0x001000d8                i686_isr10
                0x001000df                i686_isr11
                0x001000e6                i686_isr12
                0x001000ed                i686_isr13
                0x001000f4                i686_isr14
                0x001000fb                i686_isr15
                0x00100104                i686_isr16
                0x0010010d                i686_isr17
                0x00100114                i686_isr18
                0x0010011d                i686_isr19
                0x00100126                i686_isr20
                0x0010012f                i686_isr21
                0x00100136                i686_isr22
                0x0010013f                i686_isr23
                0x00100148                i686_isr24
                0x00100151                i686_isr25
                0x0010015a                i686_isr26
                0x00100163                i686_isr27
                0x0010016c                i686_isr28
                0x00100175                i686_isr29
                0x0010017e                i686_isr30
                0x00100187                i686_isr31
                0x00100190                i686_isr32
                0x00100199                i686_isr33
                0x001001a2                i686_isr34
                0x001001ab                i686_isr35
                0x001001b4                i686_isr36
                0x001001bd                i686_isr37
                0x001001c6                i686_isr38
                0x001001cf                i686_isr39
                0x001001d8                i686_isr40
                0x001001e1                i686_isr41
                0x001001ea                i686_isr42
                0x001001f3                i686_isr43
                0x001001fc                i686_isr44
                0x00100205                i686_isr45
                0x0010020e                i686_isr46
                0x00100217                i686_isr47
                0x00100220                i686_isr48
                0x00100229                i686_isr49
                0x00100232                i686_isr50
                0x0010023b                i686_isr51
                0x00100244                i686_isr52
                0x0010024d                i686_isr53
                0x00100256                i686_isr54
                0x0010025f                i686_isr55
                0x00100268                i686_isr56
                0x00100271                i686_isr57
                0x0010027a                i686_isr58
                0x00100283                i686_isr59
                0x0010028c                i686_isr60
                0x00100295                i686_isr61
                0x0010029e                i686_isr62
                0x001002a7                i686_isr63
                0x001002b0                i686_isr64
                0x001002b9                i686_isr65
                0x001002c2                i686_isr66
                0x001002cb                i686_isr67
                0x001002d4                i686_isr68
                0x001002dd                i686_isr69
                0x001002e6                i686_isr70
                0x001002ef                i686_isr71
                0x001002f8                i686_isr72
                0x00100301                i686_isr73
                0x0010030a                i686_isr74
                0x00100313                i686_isr75
                0x0010031c                i686_isr76
                0x00100325                i686_isr77
                0x0010032e                i686_isr78
                0x00100337                i686_isr79
                0x00100340                i686_isr80
                0x00100349                i686_isr81
                0x00100352                i686_isr82
                0x0010035b                i686_isr83
                0x00100364                i686_isr84
                0x0010036d                i686_isr85
                0x00100376                i686_isr86
                0x0010037f                i686_isr87
                0x00100388                i686_isr88
                0x00100391                i686_isr89
                0x0010039a                i686_isr90
                0x001003a3                i686_isr91
                0x001003ac                i686_isr92
                0x001003b5                i686_isr93
                0x001003be                i686_isr94
                0x001003c7                i686_isr95
                0x001003d0                i686_isr96
                0x001003d9                i686_isr97
                0x001003e2                i686_isr98
                0x001003eb                i686_isr99
                0x001003f4                i686_isr100
                0x001003fd                i686_isr101
                0x00100406                i686_isr102
                0x0010040f                i686_isr103
                0x00100418                i686_isr104
                0x00100421                i686_isr105
                0x0010042a                i686_isr106
                0x00100433                i686_isr107
                0x0010043c                i686_isr108
                0x00100445                i686_isr109
                0x0010044e                i686_isr110
                0x00100457                i686_isr111
                0x00100460                i686_isr112
                0x00100469                i686_isr113
                0x00100472                i686_isr114
                0x0010047b                i686_isr115
                0x00100484                i686_isr116
                0x0010048d                i686_isr117
                0x00100496                i686_isr118
                0x0010049f                i686_isr119
                0x001004a8                i686_isr120
                0x001004b1                i686_isr121
                0x001004ba                i686_isr122
                0x001004c3                i686_isr123
                0x001004cc                i686_isr124
                0x001004d5                i686_isr125
                0x001004de                i686_isr126
                0x001004e7                i686_isr127
                0x001004f0                i686_isr128
                0x001004fc                i686_isr129
                0x00100508                i686_isr130
                0x00100514                i686_isr131
                0x00100520                i686_isr132
                0x0010052c                i686_isr133
                0x00100538                i686_isr134
                0x00100544                i686_isr135
                0x00100550                i686_isr136
                0x0010055c                i686_isr137
                0x00100568                i686_isr138
                0x00100574                i686_isr139
                0x00100580                i686_isr140
                0x0010058c                i686_isr141
                0x00100598                i686_isr142
                0x001005a4                i686_isr143
                0x001005b0                i686_isr144
                0x001005bc                i686_isr145
                0x001005c8                i686_isr146
                0x001005d4                i686_isr147
                0x001005e0                i686_isr148
                0x001005ec                i686_isr149
                0x001005f8                i686_isr150
                0x00100604                i686_isr151
                0x00100610                i686_isr152
                0x0010061c                i686_isr153
                0x00100628                i686_isr154
                0x00100634                i686_isr155
                0x00100640                i686_isr156
                0x0010064c                i686_isr157
                0x00100658                i686_isr158
                0x00100664                i686_isr159
                0x00100670                i686_isr160
                0x0010067c                i686_isr161
                0x00100688                i686_isr162
                0x00100694                i686_isr163
                0x001006a0                i686_isr164
                0x001006ac                i686_isr165
                0x001006b8                i686_isr166
                0x001006c4                i686_isr167
                0x001006d0                i686_isr168
                0x001006dc                i686_isr169
                0x001006e8                i686_isr170
                0x001006f4                i686_isr171
                0x00100700                i686_isr172
                0x0010070c                i686_isr173
                0x00100718                i686_isr174
                0x00100724                i686_isr175
                0x00100730                i686_isr176
                0x0010073c                i686_isr177
                0x00100748                i686_isr178
                0x00100754                i686_isr179
                0x00100760                i686_isr180
                0x0010076c                i686_isr181
                0x00100778                i686_isr182
                0x00100784                i686_isr183
                0x00100790                i686_isr184
                0x0010079c                i686_isr185
                0x001007a8                i686_isr186
                0x001007b4                i686_isr187
                0x001007c0                i686_isr188
                0x001007cc                i686_isr189
                0x001007d8                i686_isr190
                0x001007e4                i686_isr191
                0x001007f0                i686_isr192
                0x001007fc                i686_isr193
                0x00100808                i686_isr194
                0x00100814                i686_isr195
                0x00100820                i686_isr196
                0x0010082c                i686_isr197
                0x00100838                i686_isr198
                0x00100844                i686_isr199
                0x00100850                i686_isr200
                0x0010085c                i686_isr201
                0x00100868                i686_isr202
                0x00100874                i686_isr203
                0x00100880                i686_isr204
                0x0010088c                i686_isr205
                0x00100898                i686_isr206
                0x001008a4                i686_isr207
                0x001008b0                i686_isr208
                0x001008bc                i686_isr209
                0x001008c8                i686_isr210
                0x001008d4                i686_isr211
                0x001008e0                i686_isr212
                0x001008ec                i686_isr213
                0x001008f8                i686_isr214
                0x00100904                i686_isr215
                0x00100910                i686_isr216
                0x0010091c                i686_isr217
                0x00100928                i686_isr218
                0x00100934                i686_isr219
                0x00100940                i686_isr220
                0x0010094c                i686_isr221
                0x00100958                i686_isr222
                0x00100964                i686_isr223
                0x00100970                i686_isr224
                0x0010097c                i686_isr225
                0x00100988                i686_isr226
                0x00100994                i686_isr227
                0x001009a0                i686_isr228
                0x001009ac                i686_isr229
                0x001009b8                i686_isr230
                0x001009c4                i686_isr231
                0x001009d0                i686_isr232
                0x001009dc                i686_isr233
                0x001009e8                i686_isr234
                0x001009f4                i686_isr235
                0x00100a00                i686_isr236
                0x00100a0c                i686_isr237
                0x00100a18                i686_isr238
                0x00100a24                i686_isr239
                0x00100a30                i686_isr240
                0x00100a3c                i686_isr241
                0x00100a45                i686_isr242
                0x00100a4e                i686_isr243
                0x00100a57                i686_isr244
                0x00100a60                i686_isr245
                0x00100a69                i686_isr246
                0x00100a72                i686_isr247
                0x00100a7b                i686_isr248
                0x00100a84                i686_isr249
                0x00100a8d                i686_isr250
                0x00100a96                i686_isr251
                0x00100a9f                i686_isr252
                0x00100aa8                i686_isr253
                0x00100ab1                i686_isr254
                0x00100aba                i686_isr255
 .text          0x00100af0       0x25 /home/zaccaria/Scrivania/Proj/ZerOS/build/kernel/asm/./include_src/i686/io.obj
                0x00100af0                i686_outb
                0x00100afb                i686_inb
                0x00100b07                i686_halt
                0x00100b09                i686_crash
                0x00100b11                i686_enaint
                0x00100b13                i686_disint
 *fill*         0x00100b15        0xb 
 .text          0x00100b20       0x25 /home/zaccaria/Scrivania/Proj/ZerOS/build/kernel/asm/./include_src/i686/gdt.obj
                0x00100b20                i686_gdt_load
 .text          0x00100b45       0x21 /home/zaccaria/Scrivania/Proj/ZerOS/build/kernel/c/./include_src/util/error.obj
                0x00100b45                terminate
 .text          0x00100b66      0x89d /home/zaccaria/Scrivania/Proj/ZerOS/build/kernel/c/./include_src/std/stdio.obj
                0x00100b66                putclr
                0x00100b98                putchr
                0x00100bc7                set_tabw
                0x00100bd5                get_tabw
                0x00100bdf                putc
                0x00100d7e                puts
                0x00100dad                cls
                0x00100e1b                setcrs
                0x00100e8c                getchr
                0x00100eae                getclr
                0x00100ed3                scrlback
                0x00100fba                printf
                0x001012ff                printf_unsigned
                0x001013a6                printf_signed
 .text          0x00101403       0xf5 /home/zaccaria/Scrivania/Proj/ZerOS/build/kernel/c/./include_src/std/string.obj
                0x00101403                memcpy
                0x00101455                memset
                0x00101498                memcmp
 .text          0x001014f8       0x1d /home/zaccaria/Scrivania/Proj/ZerOS/build/kernel/c/./include_src/i686/gdt.obj
                0x001014f8                i686_gdt_init
 .text          0x00101515      0x203 /home/zaccaria/Scrivania/Proj/ZerOS/build/kernel/c/./include_src/i686/isr.obj
                0x00101515                i686_isr_init
                0x00101557                i686_isr_handler
                0x001016f4                i686_isr_register_handler
 .text          0x00101718       0x1b /home/zaccaria/Scrivania/Proj/ZerOS/build/kernel/c/./include_src/i686/io.obj
                0x00101718                i686_iowait
 .text          0x00101733     0x1489 /home/zaccaria/Scrivania/Proj/ZerOS/build/kernel/c/./include_src/i686/isrs_generated.obj
                0x00101733                i686_isr_init_gates
 .text          0x00102bbc       0xba /home/zaccaria/Scrivania/Proj/ZerOS/build/kernel/c/./include_src/i686/idt.obj
                0x00102bbc                i686_idt_setgate
                0x00102c1d                i686_idt_enablegate
                0x00102c3d                i686_idt_disablegate
                0x00102c5d                i686_idt_init
 .text          0x00102c76        0x6 /home/zaccaria/Scrivania/Proj/ZerOS/build/kernel/cpp/./include_src/gccdefs/purevirtual.obj
                0x00102c76                __cxa_pure_virtual
 .text          0x00102c7c      0x4a8 /home/zaccaria/Scrivania/Proj/ZerOS/build/kernel/cpp/./include_src/ps2/keyboard/ps2_keyboard.obj
                0x00102c7c                _ZN12ps2_keyboardC1Ei
                0x00102c7c                _ZN12ps2_keyboardC2Ei
                0x00102d28                _ZN12ps2_keyboard15get_scancodesetEv
                0x00102df8                _ZN12ps2_keyboard15set_scancodesetEh
                0x00102eb0                _ZN12ps2_keyboard11int_handlerEP9registers
 .text          0x00103124      0x752 /home/zaccaria/Scrivania/Proj/ZerOS/build/kernel/cpp/./include_src/ps2/ps2_driver.obj
                0x00103124                _ZN10ps2_driverC1Eb
                0x00103124                _ZN10ps2_driverC2Eb
                0x00103294                _ZN10ps2_driver15test_controllerEv
                0x001032da                _ZN10ps2_driver9test_portEv
                0x00103336                _ZN10ps2_driver7disableEv
                0x00103378                _ZN10ps2_driver6enableEv
                0x001033ba                _ZN10ps2_driver12flush_outbufEv
                0x001033f4                _ZN10ps2_driver11flush_inbufEv
                0x0010342e                _ZN10ps2_driver11disable_irqEv
                0x001034ac                _ZN10ps2_driver10enable_irqEv
                0x0010352a                _ZN10ps2_driver19disable_translationEv
                0x00103594                _ZN10ps2_driver21check_port2_availableEv
                0x001035d2                _ZN10ps2_driver5resetEv
                0x0010366a                _ZN10ps2_driver8identifyEv
 .text          0x00103876       0x22 /home/zaccaria/Scrivania/Proj/ZerOS/build/kernel/cpp/./include_src/hal/hal.obj
                0x00103876                _Z8hal_initv
 .text          0x00103898      0x11b /home/zaccaria/Scrivania/Proj/ZerOS/build/kernel/cpp/./include_src/hal/peripherals/keyboard/keyboard.obj
                0x00103898                _ZN8keyboard12handle_pressEh
                0x00103958                _ZN8keyboard14handle_releaseEh
                0x00103968                _ZN8keyboard10set_layoutE15keyboard_layout
                0x00103976                _ZN8keyboard10get_layoutEv
 *fill*         0x001039b3        0x1 
 .text          0x001039b4       0xa8 /home/zaccaria/Scrivania/Proj/ZerOS/build/kernel/cpp/./include_src/hal/peripherals/keyboard/keyboard_layout.obj
                0x001039b4                _ZN15keyboard_layoutC2Ei
                0x001039b4                _ZN15keyboard_layoutC1Ei
                0x00103a02                _ZN15keyboard_layout6getvalEii
 .text          0x00103a5c       0x9c /home/zaccaria/Scrivania/Proj/ZerOS/build/kernel/cpp/./include_src/hal/peripherals/keyboard/keystate_map.obj
                0x00103a5c                _ZN12keystate_map4initEv
                0x00103a7a                _ZN12keystate_map5pressEi
                0x00103ab8                _ZN12keystate_map7releaseEi
                0x00103aca                _ZN12keystate_map9ispressedEi
 .text          0x00103af8      0x2ae /home/zaccaria/Scrivania/Proj/ZerOS/build/kernel/cpp/./include_src/i686/pic.obj
                0x00103af8                _ZN10pic_driver4initEhhb
                0x00103c18                _ZN10pic_driver5probeEv
                0x00103c42                _ZN10pic_driver7disableEv
                0x00103c5c                _ZN10pic_driver8send_eoiEi
                0x00103c8c                _ZN10pic_driver4maskEi
                0x00103cbe                _ZN10pic_driver6unmaskEi
                0x00103cf2                _ZN10pic_driver7getmaskEv
                0x00103cfe                _ZN10pic_driver7setmaskEt
                0x00103d5a                _ZN10pic_driver8readmaskEv
 .text          0x00103da6       0xe7 /home/zaccaria/Scrivania/Proj/ZerOS/build/kernel/cpp/./include_src/i686/irq.obj
                0x00103da6                _Z16i686_irq_handlerP9registers
                0x00103e0c                _ZN10irq_driver4initEv
                0x00103e7a                _ZN10irq_driver16register_handlerEiPFvP9registersE
 .text          0x00103e8d       0x39 /home/zaccaria/Scrivania/Proj/ZerOS/build/kernel/cpp/./main.obj
                0x00103e8d                _Z3endv
                0x00103e92                _Z13timer_handlerP9registers
                0x00103e98                _Z16keyboard_handlerP9registers
 *fill*         0x00103ec6        0xa 
 .text          0x00103ed0      0x11a /home/zaccaria/Scrivania/Proj/ZerOS/toolchain/i686-elf/lib/gcc/i686-elf/14.2.0/libgcc.a(_udivdi3.o)
                0x00103ed0                __udivdi3
 *fill*         0x00103fea        0x6 
 .text          0x00103ff0      0x13e /home/zaccaria/Scrivania/Proj/ZerOS/toolchain/i686-elf/lib/gcc/i686-elf/14.2.0/libgcc.a(_umoddi3.o)
                0x00103ff0                __umoddi3

.text._Z7arrsizeIPK13scantokey_mapLm2EEmRAT0__KT_
                0x0010412e        0xa
 .text._Z7arrsizeIPK13scantokey_mapLm2EEmRAT0__KT_
                0x0010412e        0xa /home/zaccaria/Scrivania/Proj/ZerOS/build/kernel/cpp/./include_src/ps2/keyboard/ps2_keyboard.obj
                0x0010412e                _Z7arrsizeIPK13scantokey_mapLm2EEmRAT0__KT_

.text._Z7arrsizeI12ps2_dev_typeLm12EEmRAT0__KT_
                0x00104138        0xa
 .text._Z7arrsizeI12ps2_dev_typeLm12EEmRAT0__KT_
                0x00104138        0xa /home/zaccaria/Scrivania/Proj/ZerOS/build/kernel/cpp/./include_src/ps2/ps2_driver.obj
                0x00104138                _Z7arrsizeI12ps2_dev_typeLm12EEmRAT0__KT_

.text._Z7arrsizeIPA_PKhLm1EEmRAT0__KT_
                0x00104142        0xa
 .text._Z7arrsizeIPA_PKhLm1EEmRAT0__KT_
                0x00104142        0xa /home/zaccaria/Scrivania/Proj/ZerOS/build/kernel/cpp/./include_src/hal/peripherals/keyboard/keyboard_layout.obj
                0x00104142                _Z7arrsizeIPA_PKhLm1EEmRAT0__KT_

.data           0x00104160      0xfac
                0x00104160                        __data_start = .
 *(.data)
 .data          0x00104160        0x0 /home/zaccaria/Scrivania/Proj/ZerOS/build/kernel/c/./include_src/util/error.obj
 .data          0x00104160        0xc /home/zaccaria/Scrivania/Proj/ZerOS/build/kernel/c/./include_src/std/stdio.obj
                0x00104160                g_screenbuf
                0x00104164                g_tabw
                0x00104168                hex_chars
 .data          0x0010416c        0x0 /home/zaccaria/Scrivania/Proj/ZerOS/build/kernel/c/./include_src/std/string.obj
 .data          0x0010416c       0x1e /home/zaccaria/Scrivania/Proj/ZerOS/build/kernel/c/./include_src/i686/gdt.obj
                0x0010416c                g_gdt
                0x00104184                g_gdtdescriptor
 *fill*         0x0010418a       0x16 
 .data          0x001041a0       0x80 /home/zaccaria/Scrivania/Proj/ZerOS/build/kernel/c/./include_src/i686/isr.obj
 .data          0x00104220        0x0 /home/zaccaria/Scrivania/Proj/ZerOS/build/kernel/c/./include_src/i686/io.obj
 .data          0x00104220        0x0 /home/zaccaria/Scrivania/Proj/ZerOS/build/kernel/c/./include_src/i686/isrs_generated.obj
 .data          0x00104220        0x6 /home/zaccaria/Scrivania/Proj/ZerOS/build/kernel/c/./include_src/i686/idt.obj
                0x00104220                g_idtdescriptor
 .data          0x00104226        0x0 /home/zaccaria/Scrivania/Proj/ZerOS/build/kernel/cpp/./include_src/gccdefs/purevirtual.obj
 *fill*         0x00104226       0x1a 
 .data          0x00104240      0x2ac /home/zaccaria/Scrivania/Proj/ZerOS/build/kernel/cpp/./include_src/ps2/keyboard/ps2_keyboard.obj
 *fill*         0x001044ec       0x14 
 .data          0x00104500       0x60 /home/zaccaria/Scrivania/Proj/ZerOS/build/kernel/cpp/./include_src/ps2/ps2_driver.obj
 .data          0x00104560      0x208 /home/zaccaria/Scrivania/Proj/ZerOS/build/kernel/cpp/./include_src/hal/hal.obj
 *fill*         0x00104768       0x18 
 .data          0x00104780      0x24c /home/zaccaria/Scrivania/Proj/ZerOS/build/kernel/cpp/./include_src/hal/peripherals/keyboard/keyboard.obj
 *fill*         0x001049cc       0x14 
 .data          0x001049e0      0x24c /home/zaccaria/Scrivania/Proj/ZerOS/build/kernel/cpp/./include_src/hal/peripherals/keyboard/keyboard_layout.obj
 *fill*         0x00104c2c       0x14 
 .data          0x00104c40      0x208 /home/zaccaria/Scrivania/Proj/ZerOS/build/kernel/cpp/./include_src/hal/peripherals/keyboard/keystate_map.obj
 .data          0x00104e48        0x2 /home/zaccaria/Scrivania/Proj/ZerOS/build/kernel/cpp/./include_src/i686/pic.obj
                0x00104e48                _ZN10pic_driver6a_maskE
 .data          0x00104e4a        0x0 /home/zaccaria/Scrivania/Proj/ZerOS/build/kernel/cpp/./include_src/i686/irq.obj
 *fill*         0x00104e4a       0x16 
 .data          0x00104e60      0x2ac /home/zaccaria/Scrivania/Proj/ZerOS/build/kernel/cpp/./main.obj
 .data          0x0010510c        0x0 /home/zaccaria/Scrivania/Proj/ZerOS/toolchain/i686-elf/lib/gcc/i686-elf/14.2.0/libgcc.a(_udivdi3.o)
 .data          0x0010510c        0x0 /home/zaccaria/Scrivania/Proj/ZerOS/toolchain/i686-elf/lib/gcc/i686-elf/14.2.0/libgcc.a(_umoddi3.o)

.ctors          0x0010510c        0x4
 .ctors         0x0010510c        0x4 /home/zaccaria/Scrivania/Proj/ZerOS/build/kernel/cpp/./include_src/hal/peripherals/keyboard/keyboard.obj

.rodata         0x00105120     0x4617
                0x00105120                        __rodata_start = .
 *(.rodata)
 .rodata        0x00105120        0xe /home/zaccaria/Scrivania/Proj/ZerOS/build/kernel/c/./include_src/util/error.obj
 *fill*         0x0010512e        0x2 
 .rodata        0x00105130       0xb1 /home/zaccaria/Scrivania/Proj/ZerOS/build/kernel/c/./include_src/std/stdio.obj
                0x00105130                SCR_W
                0x00105134                SCR_H
 *fill*         0x001051e1        0x3 
 .rodata        0x001051e4      0x33f /home/zaccaria/Scrivania/Proj/ZerOS/build/kernel/c/./include_src/i686/isr.obj
 *fill*         0x00105523       0x1d 
 .rodata        0x00105540      0xda5 /home/zaccaria/Scrivania/Proj/ZerOS/build/kernel/cpp/./include_src/ps2/keyboard/ps2_keyboard.obj
 *fill*         0x001062e5        0x3 
 .rodata        0x001062e8      0x30c /home/zaccaria/Scrivania/Proj/ZerOS/build/kernel/cpp/./include_src/ps2/ps2_driver.obj
 *fill*         0x001065f4        0xc 
 .rodata        0x00106600      0x67c /home/zaccaria/Scrivania/Proj/ZerOS/build/kernel/cpp/./include_src/hal/hal.obj
 *fill*         0x00106c7c        0x4 
 .rodata        0x00106c80      0xb83 /home/zaccaria/Scrivania/Proj/ZerOS/build/kernel/cpp/./include_src/hal/peripherals/keyboard/keyboard.obj
 *fill*         0x00107803       0x1d 
 .rodata        0x00107820      0xbd3 /home/zaccaria/Scrivania/Proj/ZerOS/build/kernel/cpp/./include_src/hal/peripherals/keyboard/keyboard_layout.obj
 *fill*         0x001083f3        0xd 
 .rodata        0x00108400      0x67c /home/zaccaria/Scrivania/Proj/ZerOS/build/kernel/cpp/./include_src/hal/peripherals/keyboard/keystate_map.obj
 .rodata        0x00108a7c       0x13 /home/zaccaria/Scrivania/Proj/ZerOS/build/kernel/cpp/./include_src/i686/irq.obj
 *fill*         0x00108a8f       0x11 
 .rodata        0x00108aa0      0xc97 /home/zaccaria/Scrivania/Proj/ZerOS/build/kernel/cpp/./main.obj

.eh_frame       0x00109738      0x80c
 .eh_frame      0x00109738       0x38 /home/zaccaria/Scrivania/Proj/ZerOS/build/kernel/cpp/./include_src/gccdefs/purevirtual.obj
 .eh_frame      0x00109770       0xbc /home/zaccaria/Scrivania/Proj/ZerOS/build/kernel/cpp/./include_src/ps2/keyboard/ps2_keyboard.obj
 .eh_frame      0x0010982c      0x1d8 /home/zaccaria/Scrivania/Proj/ZerOS/build/kernel/cpp/./include_src/ps2/ps2_driver.obj
 .eh_frame      0x00109a04       0x38 /home/zaccaria/Scrivania/Proj/ZerOS/build/kernel/cpp/./include_src/hal/hal.obj
 .eh_frame      0x00109a3c       0xd8 /home/zaccaria/Scrivania/Proj/ZerOS/build/kernel/cpp/./include_src/hal/peripherals/keyboard/keyboard.obj
 .eh_frame      0x00109b14       0x78 /home/zaccaria/Scrivania/Proj/ZerOS/build/kernel/cpp/./include_src/hal/peripherals/keyboard/keyboard_layout.obj
 .eh_frame      0x00109b8c       0x98 /home/zaccaria/Scrivania/Proj/ZerOS/build/kernel/cpp/./include_src/hal/peripherals/keyboard/keystate_map.obj
 .eh_frame      0x00109c24      0x13c /home/zaccaria/Scrivania/Proj/ZerOS/build/kernel/cpp/./include_src/i686/pic.obj
 .eh_frame      0x00109d60       0x78 /home/zaccaria/Scrivania/Proj/ZerOS/build/kernel/cpp/./include_src/i686/irq.obj
 .eh_frame      0x00109dd8       0x94 /home/zaccaria/Scrivania/Proj/ZerOS/build/kernel/cpp/./main.obj
 .eh_frame      0x00109e6c       0x64 /home/zaccaria/Scrivania/Proj/ZerOS/toolchain/i686-elf/lib/gcc/i686-elf/14.2.0/libgcc.a(_udivdi3.o)
 .eh_frame      0x00109ed0       0x74 /home/zaccaria/Scrivania/Proj/ZerOS/toolchain/i686-elf/lib/gcc/i686-elf/14.2.0/libgcc.a(_umoddi3.o)

.bss            0x00109f60      0xd3c
                0x00109f60                        __bss_start = .
 *(.bss)
 .bss           0x00109f60        0x0 /home/zaccaria/Scrivania/Proj/ZerOS/build/kernel/c/./include_src/util/error.obj
 .bss           0x00109f60        0x8 /home/zaccaria/Scrivania/Proj/ZerOS/build/kernel/c/./include_src/std/stdio.obj
                0x00109f60                g_screenx
                0x00109f64                g_screeny
 .bss           0x00109f68        0x0 /home/zaccaria/Scrivania/Proj/ZerOS/build/kernel/c/./include_src/std/string.obj
 .bss           0x00109f68        0x0 /home/zaccaria/Scrivania/Proj/ZerOS/build/kernel/c/./include_src/i686/gdt.obj
 *fill*         0x00109f68       0x18 
 .bss           0x00109f80      0x400 /home/zaccaria/Scrivania/Proj/ZerOS/build/kernel/c/./include_src/i686/isr.obj
                0x00109f80                g_isr_handlers
 .bss           0x0010a380        0x0 /home/zaccaria/Scrivania/Proj/ZerOS/build/kernel/c/./include_src/i686/io.obj
 .bss           0x0010a380        0x0 /home/zaccaria/Scrivania/Proj/ZerOS/build/kernel/c/./include_src/i686/isrs_generated.obj
 .bss           0x0010a380      0x800 /home/zaccaria/Scrivania/Proj/ZerOS/build/kernel/c/./include_src/i686/idt.obj
                0x0010a380                g_idt
 .bss           0x0010ab80        0x0 /home/zaccaria/Scrivania/Proj/ZerOS/build/kernel/cpp/./include_src/gccdefs/purevirtual.obj
 .bss           0x0010ab80       0x10 /home/zaccaria/Scrivania/Proj/ZerOS/build/kernel/cpp/./include_src/ps2/keyboard/ps2_keyboard.obj
                0x0010ab80                _ZN12ps2_keyboard9firstreadE
                0x0010ab81                _ZN12ps2_keyboard5stateE
                0x0010ab82                _ZN12ps2_keyboard11lookuplevelE
                0x0010ab83                _ZN12ps2_keyboard12other_inputsE
 .bss           0x0010ab90        0xc /home/zaccaria/Scrivania/Proj/ZerOS/build/kernel/cpp/./include_src/ps2/ps2_driver.obj
 .bss           0x0010ab9c        0x0 /home/zaccaria/Scrivania/Proj/ZerOS/build/kernel/cpp/./include_src/hal/hal.obj
 .bss           0x0010ab9c        0x4 /home/zaccaria/Scrivania/Proj/ZerOS/build/kernel/cpp/./include_src/hal/peripherals/keyboard/keyboard.obj
                0x0010ab9c                _ZN8keyboard2klE
 .bss           0x0010aba0        0x0 /home/zaccaria/Scrivania/Proj/ZerOS/build/kernel/cpp/./include_src/hal/peripherals/keyboard/keyboard_layout.obj
 .bss           0x0010aba0       0x81 /home/zaccaria/Scrivania/Proj/ZerOS/build/kernel/cpp/./include_src/hal/peripherals/keyboard/keystate_map.obj
                0x0010aba0                _ZN12keystate_map9keystatesE
                0x0010ac1f                _ZN12keystate_map13numlocktoggleE
                0x0010ac20                _ZN12keystate_map14capslocktoggleE
 *fill*         0x0010ac21        0x3 
 .bss           0x0010ac24       0x10 /home/zaccaria/Scrivania/Proj/ZerOS/build/kernel/cpp/./include_src/i686/pic.obj
                0x0010ac24                _ZN10pic_driver10a_auto_eoiE
 *fill*         0x0010ac34        0xc 
 .bss           0x0010ac40       0x50 /home/zaccaria/Scrivania/Proj/ZerOS/build/kernel/cpp/./include_src/i686/irq.obj
                0x0010ac40                _ZN10irq_driver13a_irqhandlersE
 .bss           0x0010ac90        0xc /home/zaccaria/Scrivania/Proj/ZerOS/build/kernel/cpp/./main.obj
 .bss           0x0010ac9c        0x0 /home/zaccaria/Scrivania/Proj/ZerOS/toolchain/i686-elf/lib/gcc/i686-elf/14.2.0/libgcc.a(_udivdi3.o)
 .bss           0x0010ac9c        0x0 /home/zaccaria/Scrivania/Proj/ZerOS/toolchain/i686-elf/lib/gcc/i686-elf/14.2.0/libgcc.a(_umoddi3.o)
                0x0010ac9c                        __end = .
OUTPUT(/home/zaccaria/Scrivania/Proj/ZerOS/build/kernel.bin binary)

.debug_info     0x00000000     0x23a8
 .debug_info    0x00000000       0xc2 /home/zaccaria/Scrivania/Proj/ZerOS/build/kernel/c/./include_src/util/error.obj
 .debug_info    0x000000c2      0x5e8 /home/zaccaria/Scrivania/Proj/ZerOS/build/kernel/c/./include_src/std/stdio.obj
 .debug_info    0x000006aa      0x1e8 /home/zaccaria/Scrivania/Proj/ZerOS/build/kernel/c/./include_src/std/string.obj
 .debug_info    0x00000892      0x1f8 /home/zaccaria/Scrivania/Proj/ZerOS/build/kernel/c/./include_src/i686/gdt.obj
 .debug_info    0x00000a8a      0x291 /home/zaccaria/Scrivania/Proj/ZerOS/build/kernel/c/./include_src/i686/isr.obj
 .debug_info    0x00000d1b       0xac /home/zaccaria/Scrivania/Proj/ZerOS/build/kernel/c/./include_src/i686/io.obj
 .debug_info    0x00000dc7      0xd0a /home/zaccaria/Scrivania/Proj/ZerOS/build/kernel/c/./include_src/i686/isrs_generated.obj
 .debug_info    0x00001ad1      0x24c /home/zaccaria/Scrivania/Proj/ZerOS/build/kernel/c/./include_src/i686/idt.obj
 .debug_info    0x00001d1d      0x33a /home/zaccaria/Scrivania/Proj/ZerOS/toolchain/i686-elf/lib/gcc/i686-elf/14.2.0/libgcc.a(_udivdi3.o)
 .debug_info    0x00002057      0x351 /home/zaccaria/Scrivania/Proj/ZerOS/toolchain/i686-elf/lib/gcc/i686-elf/14.2.0/libgcc.a(_umoddi3.o)

.debug_abbrev   0x00000000      0xaf7
 .debug_abbrev  0x00000000       0x98 /home/zaccaria/Scrivania/Proj/ZerOS/build/kernel/c/./include_src/util/error.obj
 .debug_abbrev  0x00000098      0x21e /home/zaccaria/Scrivania/Proj/ZerOS/build/kernel/c/./include_src/std/stdio.obj
 .debug_abbrev  0x000002b6       0xe2 /home/zaccaria/Scrivania/Proj/ZerOS/build/kernel/c/./include_src/std/string.obj
 .debug_abbrev  0x00000398       0xf1 /home/zaccaria/Scrivania/Proj/ZerOS/build/kernel/c/./include_src/i686/gdt.obj
 .debug_abbrev  0x00000489      0x153 /home/zaccaria/Scrivania/Proj/ZerOS/build/kernel/c/./include_src/i686/isr.obj
 .debug_abbrev  0x000005dc       0x6d /home/zaccaria/Scrivania/Proj/ZerOS/build/kernel/c/./include_src/i686/io.obj
 .debug_abbrev  0x00000649       0xbf /home/zaccaria/Scrivania/Proj/ZerOS/build/kernel/c/./include_src/i686/isrs_generated.obj
 .debug_abbrev  0x00000708      0x123 /home/zaccaria/Scrivania/Proj/ZerOS/build/kernel/c/./include_src/i686/idt.obj
 .debug_abbrev  0x0000082b      0x15b /home/zaccaria/Scrivania/Proj/ZerOS/toolchain/i686-elf/lib/gcc/i686-elf/14.2.0/libgcc.a(_udivdi3.o)
 .debug_abbrev  0x00000986      0x171 /home/zaccaria/Scrivania/Proj/ZerOS/toolchain/i686-elf/lib/gcc/i686-elf/14.2.0/libgcc.a(_umoddi3.o)

.debug_aranges  0x00000000      0x140
 .debug_aranges
                0x00000000       0x20 /home/zaccaria/Scrivania/Proj/ZerOS/build/kernel/c/./include_src/util/error.obj
 .debug_aranges
                0x00000020       0x20 /home/zaccaria/Scrivania/Proj/ZerOS/build/kernel/c/./include_src/std/stdio.obj
 .debug_aranges
                0x00000040       0x20 /home/zaccaria/Scrivania/Proj/ZerOS/build/kernel/c/./include_src/std/string.obj
 .debug_aranges
                0x00000060       0x20 /home/zaccaria/Scrivania/Proj/ZerOS/build/kernel/c/./include_src/i686/gdt.obj
 .debug_aranges
                0x00000080       0x20 /home/zaccaria/Scrivania/Proj/ZerOS/build/kernel/c/./include_src/i686/isr.obj
 .debug_aranges
                0x000000a0       0x20 /home/zaccaria/Scrivania/Proj/ZerOS/build/kernel/c/./include_src/i686/io.obj
 .debug_aranges
                0x000000c0       0x20 /home/zaccaria/Scrivania/Proj/ZerOS/build/kernel/c/./include_src/i686/isrs_generated.obj
 .debug_aranges
                0x000000e0       0x20 /home/zaccaria/Scrivania/Proj/ZerOS/build/kernel/c/./include_src/i686/idt.obj
 .debug_aranges
                0x00000100       0x20 /home/zaccaria/Scrivania/Proj/ZerOS/toolchain/i686-elf/lib/gcc/i686-elf/14.2.0/libgcc.a(_udivdi3.o)
 .debug_aranges
                0x00000120       0x20 /home/zaccaria/Scrivania/Proj/ZerOS/toolchain/i686-elf/lib/gcc/i686-elf/14.2.0/libgcc.a(_umoddi3.o)

.debug_line     0x00000000      0xd0c
 .debug_line    0x00000000       0x63 /home/zaccaria/Scrivania/Proj/ZerOS/build/kernel/c/./include_src/util/error.obj
 .debug_line    0x00000063      0x3d8 /home/zaccaria/Scrivania/Proj/ZerOS/build/kernel/c/./include_src/std/stdio.obj
 .debug_line    0x0000043b       0xd4 /home/zaccaria/Scrivania/Proj/ZerOS/build/kernel/c/./include_src/std/string.obj
 .debug_line    0x0000050f       0x64 /home/zaccaria/Scrivania/Proj/ZerOS/build/kernel/c/./include_src/i686/gdt.obj
 .debug_line    0x00000573       0xe9 /home/zaccaria/Scrivania/Proj/ZerOS/build/kernel/c/./include_src/i686/isr.obj
 .debug_line    0x0000065c       0x62 /home/zaccaria/Scrivania/Proj/ZerOS/build/kernel/c/./include_src/i686/io.obj
 .debug_line    0x000006be      0x263 /home/zaccaria/Scrivania/Proj/ZerOS/build/kernel/c/./include_src/i686/isrs_generated.obj
 .debug_line    0x00000921       0x93 /home/zaccaria/Scrivania/Proj/ZerOS/build/kernel/c/./include_src/i686/idt.obj
 .debug_line    0x000009b4      0x180 /home/zaccaria/Scrivania/Proj/ZerOS/toolchain/i686-elf/lib/gcc/i686-elf/14.2.0/libgcc.a(_udivdi3.o)
 .debug_line    0x00000b34      0x1d8 /home/zaccaria/Scrivania/Proj/ZerOS/toolchain/i686-elf/lib/gcc/i686-elf/14.2.0/libgcc.a(_umoddi3.o)

.debug_str      0x00000000     0x1f87
 .debug_str     0x00000000       0xef /home/zaccaria/Scrivania/Proj/ZerOS/build/kernel/c/./include_src/util/error.obj
 .debug_str     0x000000ef      0x3f1 /home/zaccaria/Scrivania/Proj/ZerOS/build/kernel/c/./include_src/std/stdio.obj
 .debug_str     0x000004e0      0x11e /home/zaccaria/Scrivania/Proj/ZerOS/build/kernel/c/./include_src/std/string.obj
 .debug_str     0x000005fe      0x2f9 /home/zaccaria/Scrivania/Proj/ZerOS/build/kernel/c/./include_src/i686/gdt.obj
 .debug_str     0x000008f7      0x1cb /home/zaccaria/Scrivania/Proj/ZerOS/build/kernel/c/./include_src/i686/isr.obj
 .debug_str     0x00000ac2       0xf6 /home/zaccaria/Scrivania/Proj/ZerOS/build/kernel/c/./include_src/i686/io.obj
 .debug_str     0x00000bb8      0xd59 /home/zaccaria/Scrivania/Proj/ZerOS/build/kernel/c/./include_src/i686/isrs_generated.obj
 .debug_str     0x00001911      0x27c /home/zaccaria/Scrivania/Proj/ZerOS/build/kernel/c/./include_src/i686/idt.obj
 .debug_str     0x00001b8d      0x1fd /home/zaccaria/Scrivania/Proj/ZerOS/toolchain/i686-elf/lib/gcc/i686-elf/14.2.0/libgcc.a(_udivdi3.o)
 .debug_str     0x00001d8a      0x1fd /home/zaccaria/Scrivania/Proj/ZerOS/toolchain/i686-elf/lib/gcc/i686-elf/14.2.0/libgcc.a(_umoddi3.o)

.debug_line_str
                0x00000000      0xa45
 .debug_line_str
                0x00000000       0xbe /home/zaccaria/Scrivania/Proj/ZerOS/build/kernel/c/./include_src/util/error.obj
 .debug_line_str
                0x000000be      0x129 /home/zaccaria/Scrivania/Proj/ZerOS/build/kernel/c/./include_src/std/stdio.obj
 .debug_line_str
                0x000001e7       0xfd /home/zaccaria/Scrivania/Proj/ZerOS/build/kernel/c/./include_src/std/string.obj
 .debug_line_str
                0x000002e4      0x109 /home/zaccaria/Scrivania/Proj/ZerOS/build/kernel/c/./include_src/i686/gdt.obj
 .debug_line_str
                0x000003ed      0x128 /home/zaccaria/Scrivania/Proj/ZerOS/build/kernel/c/./include_src/i686/isr.obj
 .debug_line_str
                0x00000515      0x105 /home/zaccaria/Scrivania/Proj/ZerOS/build/kernel/c/./include_src/i686/io.obj
 .debug_line_str
                0x0000061a      0x12a /home/zaccaria/Scrivania/Proj/ZerOS/build/kernel/c/./include_src/i686/isrs_generated.obj
 .debug_line_str
                0x00000744      0x109 /home/zaccaria/Scrivania/Proj/ZerOS/build/kernel/c/./include_src/i686/idt.obj
 .debug_line_str
                0x0000084d       0xfc /home/zaccaria/Scrivania/Proj/ZerOS/toolchain/i686-elf/lib/gcc/i686-elf/14.2.0/libgcc.a(_udivdi3.o)
 .debug_line_str
                0x00000949       0xfc /home/zaccaria/Scrivania/Proj/ZerOS/toolchain/i686-elf/lib/gcc/i686-elf/14.2.0/libgcc.a(_umoddi3.o)

.comment        0x00000000      0x17c
 .comment       0x00000000       0x13 /home/zaccaria/Scrivania/Proj/ZerOS/build/kernel/c/./include_src/util/error.obj
 .comment       0x00000013       0x13 /home/zaccaria/Scrivania/Proj/ZerOS/build/kernel/c/./include_src/std/stdio.obj
 .comment       0x00000026       0x13 /home/zaccaria/Scrivania/Proj/ZerOS/build/kernel/c/./include_src/std/string.obj
 .comment       0x00000039       0x13 /home/zaccaria/Scrivania/Proj/ZerOS/build/kernel/c/./include_src/i686/gdt.obj
 .comment       0x0000004c       0x13 /home/zaccaria/Scrivania/Proj/ZerOS/build/kernel/c/./include_src/i686/isr.obj
 .comment       0x0000005f       0x13 /home/zaccaria/Scrivania/Proj/ZerOS/build/kernel/c/./include_src/i686/io.obj
 .comment       0x00000072       0x13 /home/zaccaria/Scrivania/Proj/ZerOS/build/kernel/c/./include_src/i686/isrs_generated.obj
 .comment       0x00000085       0x13 /home/zaccaria/Scrivania/Proj/ZerOS/build/kernel/c/./include_src/i686/idt.obj
 .comment       0x00000098       0x13 /home/zaccaria/Scrivania/Proj/ZerOS/build/kernel/cpp/./include_src/gccdefs/purevirtual.obj
 .comment       0x000000ab       0x13 /home/zaccaria/Scrivania/Proj/ZerOS/build/kernel/cpp/./include_src/ps2/keyboard/ps2_keyboard.obj
 .comment       0x000000be       0x13 /home/zaccaria/Scrivania/Proj/ZerOS/build/kernel/cpp/./include_src/ps2/ps2_driver.obj
 .comment       0x000000d1       0x13 /home/zaccaria/Scrivania/Proj/ZerOS/build/kernel/cpp/./include_src/hal/hal.obj
 .comment       0x000000e4       0x13 /home/zaccaria/Scrivania/Proj/ZerOS/build/kernel/cpp/./include_src/hal/peripherals/keyboard/keyboard.obj
 .comment       0x000000f7       0x13 /home/zaccaria/Scrivania/Proj/ZerOS/build/kernel/cpp/./include_src/hal/peripherals/keyboard/keyboard_layout.obj
 .comment       0x0000010a       0x13 /home/zaccaria/Scrivania/Proj/ZerOS/build/kernel/cpp/./include_src/hal/peripherals/keyboard/keystate_map.obj
 .comment       0x0000011d       0x13 /home/zaccaria/Scrivania/Proj/ZerOS/build/kernel/cpp/./include_src/i686/pic.obj
 .comment       0x00000130       0x13 /home/zaccaria/Scrivania/Proj/ZerOS/build/kernel/cpp/./include_src/i686/irq.obj
 .comment       0x00000143       0x13 /home/zaccaria/Scrivania/Proj/ZerOS/build/kernel/cpp/./main.obj
 .comment       0x00000156       0x13 /home/zaccaria/Scrivania/Proj/ZerOS/toolchain/i686-elf/lib/gcc/i686-elf/14.2.0/libgcc.a(_udivdi3.o)
 .comment       0x00000169       0x13 /home/zaccaria/Scrivania/Proj/ZerOS/toolchain/i686-elf/lib/gcc/i686-elf/14.2.0/libgcc.a(_umoddi3.o)

.debug_frame    0x00000000      0x428
 .debug_frame   0x00000000       0x34 /home/zaccaria/Scrivania/Proj/ZerOS/build/kernel/c/./include_src/util/error.obj
 .debug_frame   0x00000034      0x1dc /home/zaccaria/Scrivania/Proj/ZerOS/build/kernel/c/./include_src/std/stdio.obj
 .debug_frame   0x00000210       0x74 /home/zaccaria/Scrivania/Proj/ZerOS/build/kernel/c/./include_src/std/string.obj
 .debug_frame   0x00000284       0x34 /home/zaccaria/Scrivania/Proj/ZerOS/build/kernel/c/./include_src/i686/gdt.obj
 .debug_frame   0x000002b8       0x74 /home/zaccaria/Scrivania/Proj/ZerOS/build/kernel/c/./include_src/i686/isr.obj
 .debug_frame   0x0000032c       0x34 /home/zaccaria/Scrivania/Proj/ZerOS/build/kernel/c/./include_src/i686/io.obj
 .debug_frame   0x00000360       0x34 /home/zaccaria/Scrivania/Proj/ZerOS/build/kernel/c/./include_src/i686/isrs_generated.obj
 .debug_frame   0x00000394       0x94 /home/zaccaria/Scrivania/Proj/ZerOS/build/kernel/c/./include_src/i686/idt.obj

.debug_loclists
                0x00000000      0x978
 .debug_loclists
                0x00000000      0x50c /home/zaccaria/Scrivania/Proj/ZerOS/toolchain/i686-elf/lib/gcc/i686-elf/14.2.0/libgcc.a(_udivdi3.o)
 .debug_loclists
                0x0000050c      0x46c /home/zaccaria/Scrivania/Proj/ZerOS/toolchain/i686-elf/lib/gcc/i686-elf/14.2.0/libgcc.a(_umoddi3.o)

.debug_rnglists
                0x00000000       0x49
 .debug_rnglists
                0x00000000       0x2a /home/zaccaria/Scrivania/Proj/ZerOS/toolchain/i686-elf/lib/gcc/i686-elf/14.2.0/libgcc.a(_udivdi3.o)
 .debug_rnglists
                0x0000002a       0x1f /home/zaccaria/Scrivania/Proj/ZerOS/toolchain/i686-elf/lib/gcc/i686-elf/14.2.0/libgcc.a(_umoddi3.o)
