Archive member included to satisfy reference by file (symbol)

/home/zaccaria/Scrivania/Proj/ZerOS/toolchain/i686-elf/lib/gcc/i686-elf/14.2.0/libgcc.a(_udivdi3.o)
                              /home/zaccaria/Scrivania/Proj/ZerOS/build/kernel/c/./include_src/std/stdio.obj (__udivdi3)
/home/zaccaria/Scrivania/Proj/ZerOS/toolchain/i686-elf/lib/gcc/i686-elf/14.2.0/libgcc.a(_umoddi3.o)
                              /home/zaccaria/Scrivania/Proj/ZerOS/build/kernel/c/./include_src/std/stdio.obj (__umoddi3)

There are no discarded input sections

Memory Configuration

Name             Origin             Length             Attributes
*default*        0x00000000         0xffffffff

Linker script and memory map

LOAD /home/zaccaria/Scrivania/Proj/ZerOS/build/kernel/asm/./include_src/i686/gdt.obj
LOAD /home/zaccaria/Scrivania/Proj/ZerOS/build/kernel/asm/./include_src/i686/idt.obj
LOAD /home/zaccaria/Scrivania/Proj/ZerOS/build/kernel/asm/./include_src/i686/io.obj
LOAD /home/zaccaria/Scrivania/Proj/ZerOS/build/kernel/asm/./include_src/i686/isr.obj
LOAD /home/zaccaria/Scrivania/Proj/ZerOS/build/kernel/c/./include_src/i686/io.obj
LOAD /home/zaccaria/Scrivania/Proj/ZerOS/build/kernel/c/./include_src/i686/irq.obj
LOAD /home/zaccaria/Scrivania/Proj/ZerOS/build/kernel/c/./include_src/i686/gdt.obj
LOAD /home/zaccaria/Scrivania/Proj/ZerOS/build/kernel/c/./include_src/i686/isrs_generated.obj
LOAD /home/zaccaria/Scrivania/Proj/ZerOS/build/kernel/c/./include_src/i686/idt.obj
LOAD /home/zaccaria/Scrivania/Proj/ZerOS/build/kernel/c/./include_src/i686/isr.obj
LOAD /home/zaccaria/Scrivania/Proj/ZerOS/build/kernel/c/./include_src/i686/pic.obj
LOAD /home/zaccaria/Scrivania/Proj/ZerOS/build/kernel/c/./include_src/std/stdio.obj
LOAD /home/zaccaria/Scrivania/Proj/ZerOS/build/kernel/c/./include_src/std/string.obj
LOAD /home/zaccaria/Scrivania/Proj/ZerOS/build/kernel/c/./include_src/hal/hal.obj
LOAD /home/zaccaria/Scrivania/Proj/ZerOS/build/kernel/c/./main.obj
LOAD /home/zaccaria/Scrivania/Proj/ZerOS/toolchain/i686-elf/lib/gcc/i686-elf/14.2.0/libgcc.a
                0x00100000                        phys = 0x100000
                0x00100000                        . = phys

.entry          0x00100000       0x61
                0x00100000                        __entry_start = .
 *(.entry)
 .entry         0x00100000       0x61 /home/zaccaria/Scrivania/Proj/ZerOS/build/kernel/c/./main.obj
                0x00100000                start

.text           0x00100070     0x31ce
                0x00100070                        __text_start = .
 *(.text)
 .text          0x00100070       0x25 /home/zaccaria/Scrivania/Proj/ZerOS/build/kernel/asm/./include_src/i686/gdt.obj
                0x00100070                i686_gdt_load
 *fill*         0x00100095        0xb 
 .text          0x001000a0        0xd /home/zaccaria/Scrivania/Proj/ZerOS/build/kernel/asm/./include_src/i686/idt.obj
                0x001000a0                i686_idt_load
 *fill*         0x001000ad        0x3 
 .text          0x001000b0       0x25 /home/zaccaria/Scrivania/Proj/ZerOS/build/kernel/asm/./include_src/i686/io.obj
                0x001000b0                i686_outb
                0x001000bb                i686_inb
                0x001000c7                i686_halt
                0x001000c9                i686_crash
                0x001000d1                i686_enaint
                0x001000d3                i686_disint
 *fill*         0x001000d5        0xb 
 .text          0x001000e0      0xa70 /home/zaccaria/Scrivania/Proj/ZerOS/build/kernel/asm/./include_src/i686/isr.obj
                0x001000e0                i686_isr0
                0x001000e9                i686_isr1
                0x001000f2                i686_isr2
                0x001000fb                i686_isr3
                0x00100104                i686_isr4
                0x0010010d                i686_isr5
                0x00100116                i686_isr6
                0x0010011f                i686_isr7
                0x00100128                i686_isr8
                0x0010012f                i686_isr9
                0x00100138                i686_isr10
                0x0010013f                i686_isr11
                0x00100146                i686_isr12
                0x0010014d                i686_isr13
                0x00100154                i686_isr14
                0x0010015b                i686_isr15
                0x00100164                i686_isr16
                0x0010016d                i686_isr17
                0x00100174                i686_isr18
                0x0010017d                i686_isr19
                0x00100186                i686_isr20
                0x0010018f                i686_isr21
                0x00100196                i686_isr22
                0x0010019f                i686_isr23
                0x001001a8                i686_isr24
                0x001001b1                i686_isr25
                0x001001ba                i686_isr26
                0x001001c3                i686_isr27
                0x001001cc                i686_isr28
                0x001001d5                i686_isr29
                0x001001de                i686_isr30
                0x001001e7                i686_isr31
                0x001001f0                i686_isr32
                0x001001f9                i686_isr33
                0x00100202                i686_isr34
                0x0010020b                i686_isr35
                0x00100214                i686_isr36
                0x0010021d                i686_isr37
                0x00100226                i686_isr38
                0x0010022f                i686_isr39
                0x00100238                i686_isr40
                0x00100241                i686_isr41
                0x0010024a                i686_isr42
                0x00100253                i686_isr43
                0x0010025c                i686_isr44
                0x00100265                i686_isr45
                0x0010026e                i686_isr46
                0x00100277                i686_isr47
                0x00100280                i686_isr48
                0x00100289                i686_isr49
                0x00100292                i686_isr50
                0x0010029b                i686_isr51
                0x001002a4                i686_isr52
                0x001002ad                i686_isr53
                0x001002b6                i686_isr54
                0x001002bf                i686_isr55
                0x001002c8                i686_isr56
                0x001002d1                i686_isr57
                0x001002da                i686_isr58
                0x001002e3                i686_isr59
                0x001002ec                i686_isr60
                0x001002f5                i686_isr61
                0x001002fe                i686_isr62
                0x00100307                i686_isr63
                0x00100310                i686_isr64
                0x00100319                i686_isr65
                0x00100322                i686_isr66
                0x0010032b                i686_isr67
                0x00100334                i686_isr68
                0x0010033d                i686_isr69
                0x00100346                i686_isr70
                0x0010034f                i686_isr71
                0x00100358                i686_isr72
                0x00100361                i686_isr73
                0x0010036a                i686_isr74
                0x00100373                i686_isr75
                0x0010037c                i686_isr76
                0x00100385                i686_isr77
                0x0010038e                i686_isr78
                0x00100397                i686_isr79
                0x001003a0                i686_isr80
                0x001003a9                i686_isr81
                0x001003b2                i686_isr82
                0x001003bb                i686_isr83
                0x001003c4                i686_isr84
                0x001003cd                i686_isr85
                0x001003d6                i686_isr86
                0x001003df                i686_isr87
                0x001003e8                i686_isr88
                0x001003f1                i686_isr89
                0x001003fa                i686_isr90
                0x00100403                i686_isr91
                0x0010040c                i686_isr92
                0x00100415                i686_isr93
                0x0010041e                i686_isr94
                0x00100427                i686_isr95
                0x00100430                i686_isr96
                0x00100439                i686_isr97
                0x00100442                i686_isr98
                0x0010044b                i686_isr99
                0x00100454                i686_isr100
                0x0010045d                i686_isr101
                0x00100466                i686_isr102
                0x0010046f                i686_isr103
                0x00100478                i686_isr104
                0x00100481                i686_isr105
                0x0010048a                i686_isr106
                0x00100493                i686_isr107
                0x0010049c                i686_isr108
                0x001004a5                i686_isr109
                0x001004ae                i686_isr110
                0x001004b7                i686_isr111
                0x001004c0                i686_isr112
                0x001004c9                i686_isr113
                0x001004d2                i686_isr114
                0x001004db                i686_isr115
                0x001004e4                i686_isr116
                0x001004ed                i686_isr117
                0x001004f6                i686_isr118
                0x001004ff                i686_isr119
                0x00100508                i686_isr120
                0x00100511                i686_isr121
                0x0010051a                i686_isr122
                0x00100523                i686_isr123
                0x0010052c                i686_isr124
                0x00100535                i686_isr125
                0x0010053e                i686_isr126
                0x00100547                i686_isr127
                0x00100550                i686_isr128
                0x0010055c                i686_isr129
                0x00100568                i686_isr130
                0x00100574                i686_isr131
                0x00100580                i686_isr132
                0x0010058c                i686_isr133
                0x00100598                i686_isr134
                0x001005a4                i686_isr135
                0x001005b0                i686_isr136
                0x001005bc                i686_isr137
                0x001005c8                i686_isr138
                0x001005d4                i686_isr139
                0x001005e0                i686_isr140
                0x001005ec                i686_isr141
                0x001005f8                i686_isr142
                0x00100604                i686_isr143
                0x00100610                i686_isr144
                0x0010061c                i686_isr145
                0x00100628                i686_isr146
                0x00100634                i686_isr147
                0x00100640                i686_isr148
                0x0010064c                i686_isr149
                0x00100658                i686_isr150
                0x00100664                i686_isr151
                0x00100670                i686_isr152
                0x0010067c                i686_isr153
                0x00100688                i686_isr154
                0x00100694                i686_isr155
                0x001006a0                i686_isr156
                0x001006ac                i686_isr157
                0x001006b8                i686_isr158
                0x001006c4                i686_isr159
                0x001006d0                i686_isr160
                0x001006dc                i686_isr161
                0x001006e8                i686_isr162
                0x001006f4                i686_isr163
                0x00100700                i686_isr164
                0x0010070c                i686_isr165
                0x00100718                i686_isr166
                0x00100724                i686_isr167
                0x00100730                i686_isr168
                0x0010073c                i686_isr169
                0x00100748                i686_isr170
                0x00100754                i686_isr171
                0x00100760                i686_isr172
                0x0010076c                i686_isr173
                0x00100778                i686_isr174
                0x00100784                i686_isr175
                0x00100790                i686_isr176
                0x0010079c                i686_isr177
                0x001007a8                i686_isr178
                0x001007b4                i686_isr179
                0x001007c0                i686_isr180
                0x001007cc                i686_isr181
                0x001007d8                i686_isr182
                0x001007e4                i686_isr183
                0x001007f0                i686_isr184
                0x001007fc                i686_isr185
                0x00100808                i686_isr186
                0x00100814                i686_isr187
                0x00100820                i686_isr188
                0x0010082c                i686_isr189
                0x00100838                i686_isr190
                0x00100844                i686_isr191
                0x00100850                i686_isr192
                0x0010085c                i686_isr193
                0x00100868                i686_isr194
                0x00100874                i686_isr195
                0x00100880                i686_isr196
                0x0010088c                i686_isr197
                0x00100898                i686_isr198
                0x001008a4                i686_isr199
                0x001008b0                i686_isr200
                0x001008bc                i686_isr201
                0x001008c8                i686_isr202
                0x001008d4                i686_isr203
                0x001008e0                i686_isr204
                0x001008ec                i686_isr205
                0x001008f8                i686_isr206
                0x00100904                i686_isr207
                0x00100910                i686_isr208
                0x0010091c                i686_isr209
                0x00100928                i686_isr210
                0x00100934                i686_isr211
                0x00100940                i686_isr212
                0x0010094c                i686_isr213
                0x00100958                i686_isr214
                0x00100964                i686_isr215
                0x00100970                i686_isr216
                0x0010097c                i686_isr217
                0x00100988                i686_isr218
                0x00100994                i686_isr219
                0x001009a0                i686_isr220
                0x001009ac                i686_isr221
                0x001009b8                i686_isr222
                0x001009c4                i686_isr223
                0x001009d0                i686_isr224
                0x001009dc                i686_isr225
                0x001009e8                i686_isr226
                0x001009f4                i686_isr227
                0x00100a00                i686_isr228
                0x00100a0c                i686_isr229
                0x00100a18                i686_isr230
                0x00100a24                i686_isr231
                0x00100a30                i686_isr232
                0x00100a3c                i686_isr233
                0x00100a48                i686_isr234
                0x00100a54                i686_isr235
                0x00100a60                i686_isr236
                0x00100a6c                i686_isr237
                0x00100a78                i686_isr238
                0x00100a84                i686_isr239
                0x00100a90                i686_isr240
                0x00100a9c                i686_isr241
                0x00100aa5                i686_isr242
                0x00100aae                i686_isr243
                0x00100ab7                i686_isr244
                0x00100ac0                i686_isr245
                0x00100ac9                i686_isr246
                0x00100ad2                i686_isr247
                0x00100adb                i686_isr248
                0x00100ae4                i686_isr249
                0x00100aed                i686_isr250
                0x00100af6                i686_isr251
                0x00100aff                i686_isr252
                0x00100b08                i686_isr253
                0x00100b11                i686_isr254
                0x00100b1a                i686_isr255
 .text          0x00100b50       0x1b /home/zaccaria/Scrivania/Proj/ZerOS/build/kernel/c/./include_src/i686/io.obj
                0x00100b50                i686_iowait
 .text          0x00100b6b       0xb9 /home/zaccaria/Scrivania/Proj/ZerOS/build/kernel/c/./include_src/i686/irq.obj
                0x00100b6b                i686_irq_handler
                0x00100bca                i686_irq_init
                0x00100c11                i686_irq_register_handler
 .text          0x00100c24       0x1d /home/zaccaria/Scrivania/Proj/ZerOS/build/kernel/c/./include_src/i686/gdt.obj
                0x00100c24                i686_gdt_init
 .text          0x00100c41     0x1489 /home/zaccaria/Scrivania/Proj/ZerOS/build/kernel/c/./include_src/i686/isrs_generated.obj
                0x00100c41                i686_isr_init_gates
 .text          0x001020ca       0xba /home/zaccaria/Scrivania/Proj/ZerOS/build/kernel/c/./include_src/i686/idt.obj
                0x001020ca                i686_idt_setgate
                0x0010212b                i686_idt_enablegate
                0x0010214b                i686_idt_disablegate
                0x0010216b                i686_idt_init
 .text          0x00102184      0x1f6 /home/zaccaria/Scrivania/Proj/ZerOS/build/kernel/c/./include_src/i686/isr.obj
                0x00102184                i686_isr_init
                0x001021c6                i686_isr_handler
                0x00102356                i686_isr_register_handler
 .text          0x0010237a      0x336 /home/zaccaria/Scrivania/Proj/ZerOS/build/kernel/c/./include_src/i686/pic.obj
                0x0010237a                i686_pic_cfg
                0x0010246c                i686_pic_mask
                0x001024fd                i686_pic_unmask
                0x00102592                i686_pic_disable
                0x001025cc                i686_pic_send_eoi
                0x00102602                i686_pic_read_irq
                0x00102659                i686_pic_read_isr
 .text          0x001026b0      0x7f6 /home/zaccaria/Scrivania/Proj/ZerOS/build/kernel/c/./include_src/std/stdio.obj
                0x001026b0                putclr
                0x001026e2                putchr
                0x00102711                putc
                0x00102821                puts
                0x00102850                cls
                0x001028be                setcrs
                0x0010292f                getchr
                0x00102951                getclr
                0x00102976                scrlback
                0x00102a5d                printf
                0x00102da2                printf_unsigned
                0x00102e49                printf_signed
 .text          0x00102ea6       0xf5 /home/zaccaria/Scrivania/Proj/ZerOS/build/kernel/c/./include_src/std/string.obj
                0x00102ea6                memcpy
                0x00102ef8                memset
                0x00102f3b                memcmp
 .text          0x00102f9b       0x1d /home/zaccaria/Scrivania/Proj/ZerOS/build/kernel/c/./include_src/hal/hal.obj
                0x00102f9b                hal_init
 .text          0x00102fb8       0x1e /home/zaccaria/Scrivania/Proj/ZerOS/build/kernel/c/./main.obj
                0x00102fb8                end
                0x00102fbd                timer_handler
 *fill*         0x00102fd6        0xa 
 .text          0x00102fe0      0x11a /home/zaccaria/Scrivania/Proj/ZerOS/toolchain/i686-elf/lib/gcc/i686-elf/14.2.0/libgcc.a(_udivdi3.o)
                0x00102fe0                __udivdi3
 *fill*         0x001030fa        0x6 
 .text          0x00103100      0x13e /home/zaccaria/Scrivania/Proj/ZerOS/toolchain/i686-elf/lib/gcc/i686-elf/14.2.0/libgcc.a(_umoddi3.o)
                0x00103100                __umoddi3

.data           0x00103240       0xc8
                0x00103240                        __data_start = .
 *(.data)
 .data          0x00103240        0x0 /home/zaccaria/Scrivania/Proj/ZerOS/build/kernel/c/./include_src/i686/io.obj
 .data          0x00103240        0x0 /home/zaccaria/Scrivania/Proj/ZerOS/build/kernel/c/./include_src/i686/irq.obj
 .data          0x00103240       0x1e /home/zaccaria/Scrivania/Proj/ZerOS/build/kernel/c/./include_src/i686/gdt.obj
                0x00103240                g_gdt
                0x00103258                g_gdtdescriptor
 .data          0x0010325e        0x0 /home/zaccaria/Scrivania/Proj/ZerOS/build/kernel/c/./include_src/i686/isrs_generated.obj
 *fill*         0x0010325e        0x2 
 .data          0x00103260        0x6 /home/zaccaria/Scrivania/Proj/ZerOS/build/kernel/c/./include_src/i686/idt.obj
                0x00103260                g_idtdescriptor
 *fill*         0x00103266       0x1a 
 .data          0x00103280       0x80 /home/zaccaria/Scrivania/Proj/ZerOS/build/kernel/c/./include_src/i686/isr.obj
 .data          0x00103300        0x0 /home/zaccaria/Scrivania/Proj/ZerOS/build/kernel/c/./include_src/i686/pic.obj
 .data          0x00103300        0x8 /home/zaccaria/Scrivania/Proj/ZerOS/build/kernel/c/./include_src/std/stdio.obj
                0x00103300                g_screenbuf
                0x00103304                hex_chars
 .data          0x00103308        0x0 /home/zaccaria/Scrivania/Proj/ZerOS/build/kernel/c/./include_src/std/string.obj
 .data          0x00103308        0x0 /home/zaccaria/Scrivania/Proj/ZerOS/build/kernel/c/./include_src/hal/hal.obj
 .data          0x00103308        0x0 /home/zaccaria/Scrivania/Proj/ZerOS/build/kernel/c/./main.obj
 .data          0x00103308        0x0 /home/zaccaria/Scrivania/Proj/ZerOS/toolchain/i686-elf/lib/gcc/i686-elf/14.2.0/libgcc.a(_udivdi3.o)
 .data          0x00103308        0x0 /home/zaccaria/Scrivania/Proj/ZerOS/toolchain/i686-elf/lib/gcc/i686-elf/14.2.0/libgcc.a(_umoddi3.o)

.rodata         0x00103308      0x40c
                0x00103308                        __rodata_start = .
 *(.rodata)
 .rodata        0x00103308       0x13 /home/zaccaria/Scrivania/Proj/ZerOS/build/kernel/c/./include_src/i686/irq.obj
 *fill*         0x0010331b        0x1 
 .rodata        0x0010331c      0x333 /home/zaccaria/Scrivania/Proj/ZerOS/build/kernel/c/./include_src/i686/isr.obj
 *fill*         0x0010364f        0x1 
 .rodata        0x00103650       0xb1 /home/zaccaria/Scrivania/Proj/ZerOS/build/kernel/c/./include_src/std/stdio.obj
                0x00103650                SCR_W
                0x00103654                SCR_H
 .rodata        0x00103701       0x13 /home/zaccaria/Scrivania/Proj/ZerOS/build/kernel/c/./main.obj

.eh_frame       0x00103714       0xd8
 .eh_frame      0x00103714       0x64 /home/zaccaria/Scrivania/Proj/ZerOS/toolchain/i686-elf/lib/gcc/i686-elf/14.2.0/libgcc.a(_udivdi3.o)
 .eh_frame      0x00103778       0x74 /home/zaccaria/Scrivania/Proj/ZerOS/toolchain/i686-elf/lib/gcc/i686-elf/14.2.0/libgcc.a(_umoddi3.o)

.bss            0x00103800      0xc54
                0x00103800                        __bss_start = .
 *(.bss)
 .bss           0x00103800        0x0 /home/zaccaria/Scrivania/Proj/ZerOS/build/kernel/c/./include_src/i686/io.obj
 .bss           0x00103800       0x40 /home/zaccaria/Scrivania/Proj/ZerOS/build/kernel/c/./include_src/i686/irq.obj
                0x00103800                g_irqhandlers
 .bss           0x00103840        0x0 /home/zaccaria/Scrivania/Proj/ZerOS/build/kernel/c/./include_src/i686/gdt.obj
 .bss           0x00103840        0x0 /home/zaccaria/Scrivania/Proj/ZerOS/build/kernel/c/./include_src/i686/isrs_generated.obj
 .bss           0x00103840      0x800 /home/zaccaria/Scrivania/Proj/ZerOS/build/kernel/c/./include_src/i686/idt.obj
                0x00103840                g_idt
 .bss           0x00104040      0x400 /home/zaccaria/Scrivania/Proj/ZerOS/build/kernel/c/./include_src/i686/isr.obj
                0x00104040                g_isr_handlers
 .bss           0x00104440        0xc /home/zaccaria/Scrivania/Proj/ZerOS/build/kernel/c/./include_src/i686/pic.obj
                0x00104440                pic_icw1
                0x00104444                pic_icw4
                0x00104448                pic_cmd
 .bss           0x0010444c        0x8 /home/zaccaria/Scrivania/Proj/ZerOS/build/kernel/c/./include_src/std/stdio.obj
                0x0010444c                g_screenx
                0x00104450                g_screeny
 .bss           0x00104454        0x0 /home/zaccaria/Scrivania/Proj/ZerOS/build/kernel/c/./include_src/std/string.obj
 .bss           0x00104454        0x0 /home/zaccaria/Scrivania/Proj/ZerOS/build/kernel/c/./include_src/hal/hal.obj
 .bss           0x00104454        0x0 /home/zaccaria/Scrivania/Proj/ZerOS/build/kernel/c/./main.obj
 .bss           0x00104454        0x0 /home/zaccaria/Scrivania/Proj/ZerOS/toolchain/i686-elf/lib/gcc/i686-elf/14.2.0/libgcc.a(_udivdi3.o)
 .bss           0x00104454        0x0 /home/zaccaria/Scrivania/Proj/ZerOS/toolchain/i686-elf/lib/gcc/i686-elf/14.2.0/libgcc.a(_umoddi3.o)
                0x00104454                        __end = .
OUTPUT(/home/zaccaria/Scrivania/Proj/ZerOS/build/kernel.bin binary)

.debug_info     0x00000000     0x2aa3
 .debug_info    0x00000000       0xac /home/zaccaria/Scrivania/Proj/ZerOS/build/kernel/c/./include_src/i686/io.obj
 .debug_info    0x000000ac      0x295 /home/zaccaria/Scrivania/Proj/ZerOS/build/kernel/c/./include_src/i686/irq.obj
 .debug_info    0x00000341      0x1f8 /home/zaccaria/Scrivania/Proj/ZerOS/build/kernel/c/./include_src/i686/gdt.obj
 .debug_info    0x00000539      0xd0a /home/zaccaria/Scrivania/Proj/ZerOS/build/kernel/c/./include_src/i686/isrs_generated.obj
 .debug_info    0x00001243      0x24c /home/zaccaria/Scrivania/Proj/ZerOS/build/kernel/c/./include_src/i686/idt.obj
 .debug_info    0x0000148f      0x280 /home/zaccaria/Scrivania/Proj/ZerOS/build/kernel/c/./include_src/i686/isr.obj
 .debug_info    0x0000170f      0x29c /home/zaccaria/Scrivania/Proj/ZerOS/build/kernel/c/./include_src/i686/pic.obj
 .debug_info    0x000019ab      0x588 /home/zaccaria/Scrivania/Proj/ZerOS/build/kernel/c/./include_src/std/stdio.obj
 .debug_info    0x00001f33      0x1e8 /home/zaccaria/Scrivania/Proj/ZerOS/build/kernel/c/./include_src/std/string.obj
 .debug_info    0x0000211b       0xb3 /home/zaccaria/Scrivania/Proj/ZerOS/build/kernel/c/./include_src/hal/hal.obj
 .debug_info    0x000021ce      0x24a /home/zaccaria/Scrivania/Proj/ZerOS/build/kernel/c/./main.obj
 .debug_info    0x00002418      0x33a /home/zaccaria/Scrivania/Proj/ZerOS/toolchain/i686-elf/lib/gcc/i686-elf/14.2.0/libgcc.a(_udivdi3.o)
 .debug_info    0x00002752      0x351 /home/zaccaria/Scrivania/Proj/ZerOS/toolchain/i686-elf/lib/gcc/i686-elf/14.2.0/libgcc.a(_umoddi3.o)

.debug_abbrev   0x00000000      0xed4
 .debug_abbrev  0x00000000       0x6d /home/zaccaria/Scrivania/Proj/ZerOS/build/kernel/c/./include_src/i686/io.obj
 .debug_abbrev  0x0000006d      0x16d /home/zaccaria/Scrivania/Proj/ZerOS/build/kernel/c/./include_src/i686/irq.obj
 .debug_abbrev  0x000001da       0xf1 /home/zaccaria/Scrivania/Proj/ZerOS/build/kernel/c/./include_src/i686/gdt.obj
 .debug_abbrev  0x000002cb       0xbf /home/zaccaria/Scrivania/Proj/ZerOS/build/kernel/c/./include_src/i686/isrs_generated.obj
 .debug_abbrev  0x0000038a      0x123 /home/zaccaria/Scrivania/Proj/ZerOS/build/kernel/c/./include_src/i686/idt.obj
 .debug_abbrev  0x000004ad      0x153 /home/zaccaria/Scrivania/Proj/ZerOS/build/kernel/c/./include_src/i686/isr.obj
 .debug_abbrev  0x00000600      0x16c /home/zaccaria/Scrivania/Proj/ZerOS/build/kernel/c/./include_src/i686/pic.obj
 .debug_abbrev  0x0000076c      0x203 /home/zaccaria/Scrivania/Proj/ZerOS/build/kernel/c/./include_src/std/stdio.obj
 .debug_abbrev  0x0000096f       0xe2 /home/zaccaria/Scrivania/Proj/ZerOS/build/kernel/c/./include_src/std/string.obj
 .debug_abbrev  0x00000a51       0x5a /home/zaccaria/Scrivania/Proj/ZerOS/build/kernel/c/./include_src/hal/hal.obj
 .debug_abbrev  0x00000aab      0x15d /home/zaccaria/Scrivania/Proj/ZerOS/build/kernel/c/./main.obj
 .debug_abbrev  0x00000c08      0x15b /home/zaccaria/Scrivania/Proj/ZerOS/toolchain/i686-elf/lib/gcc/i686-elf/14.2.0/libgcc.a(_udivdi3.o)
 .debug_abbrev  0x00000d63      0x171 /home/zaccaria/Scrivania/Proj/ZerOS/toolchain/i686-elf/lib/gcc/i686-elf/14.2.0/libgcc.a(_umoddi3.o)

.debug_aranges  0x00000000      0x1a8
 .debug_aranges
                0x00000000       0x20 /home/zaccaria/Scrivania/Proj/ZerOS/build/kernel/c/./include_src/i686/io.obj
 .debug_aranges
                0x00000020       0x20 /home/zaccaria/Scrivania/Proj/ZerOS/build/kernel/c/./include_src/i686/irq.obj
 .debug_aranges
                0x00000040       0x20 /home/zaccaria/Scrivania/Proj/ZerOS/build/kernel/c/./include_src/i686/gdt.obj
 .debug_aranges
                0x00000060       0x20 /home/zaccaria/Scrivania/Proj/ZerOS/build/kernel/c/./include_src/i686/isrs_generated.obj
 .debug_aranges
                0x00000080       0x20 /home/zaccaria/Scrivania/Proj/ZerOS/build/kernel/c/./include_src/i686/idt.obj
 .debug_aranges
                0x000000a0       0x20 /home/zaccaria/Scrivania/Proj/ZerOS/build/kernel/c/./include_src/i686/isr.obj
 .debug_aranges
                0x000000c0       0x20 /home/zaccaria/Scrivania/Proj/ZerOS/build/kernel/c/./include_src/i686/pic.obj
 .debug_aranges
                0x000000e0       0x20 /home/zaccaria/Scrivania/Proj/ZerOS/build/kernel/c/./include_src/std/stdio.obj
 .debug_aranges
                0x00000100       0x20 /home/zaccaria/Scrivania/Proj/ZerOS/build/kernel/c/./include_src/std/string.obj
 .debug_aranges
                0x00000120       0x20 /home/zaccaria/Scrivania/Proj/ZerOS/build/kernel/c/./include_src/hal/hal.obj
 .debug_aranges
                0x00000140       0x28 /home/zaccaria/Scrivania/Proj/ZerOS/build/kernel/c/./main.obj
 .debug_aranges
                0x00000168       0x20 /home/zaccaria/Scrivania/Proj/ZerOS/toolchain/i686-elf/lib/gcc/i686-elf/14.2.0/libgcc.a(_udivdi3.o)
 .debug_aranges
                0x00000188       0x20 /home/zaccaria/Scrivania/Proj/ZerOS/toolchain/i686-elf/lib/gcc/i686-elf/14.2.0/libgcc.a(_umoddi3.o)

.debug_line     0x00000000      0xf7b
 .debug_line    0x00000000       0x62 /home/zaccaria/Scrivania/Proj/ZerOS/build/kernel/c/./include_src/i686/io.obj
 .debug_line    0x00000062       0xc2 /home/zaccaria/Scrivania/Proj/ZerOS/build/kernel/c/./include_src/i686/irq.obj
 .debug_line    0x00000124       0x64 /home/zaccaria/Scrivania/Proj/ZerOS/build/kernel/c/./include_src/i686/gdt.obj
 .debug_line    0x00000188      0x263 /home/zaccaria/Scrivania/Proj/ZerOS/build/kernel/c/./include_src/i686/isrs_generated.obj
 .debug_line    0x000003eb       0x93 /home/zaccaria/Scrivania/Proj/ZerOS/build/kernel/c/./include_src/i686/idt.obj
 .debug_line    0x0000047e       0xe6 /home/zaccaria/Scrivania/Proj/ZerOS/build/kernel/c/./include_src/i686/isr.obj
 .debug_line    0x00000564      0x144 /home/zaccaria/Scrivania/Proj/ZerOS/build/kernel/c/./include_src/i686/pic.obj
 .debug_line    0x000006a8      0x39b /home/zaccaria/Scrivania/Proj/ZerOS/build/kernel/c/./include_src/std/stdio.obj
 .debug_line    0x00000a43       0xd4 /home/zaccaria/Scrivania/Proj/ZerOS/build/kernel/c/./include_src/std/string.obj
 .debug_line    0x00000b17       0x6a /home/zaccaria/Scrivania/Proj/ZerOS/build/kernel/c/./include_src/hal/hal.obj
 .debug_line    0x00000b81       0xa2 /home/zaccaria/Scrivania/Proj/ZerOS/build/kernel/c/./main.obj
 .debug_line    0x00000c23      0x180 /home/zaccaria/Scrivania/Proj/ZerOS/toolchain/i686-elf/lib/gcc/i686-elf/14.2.0/libgcc.a(_udivdi3.o)
 .debug_line    0x00000da3      0x1d8 /home/zaccaria/Scrivania/Proj/ZerOS/toolchain/i686-elf/lib/gcc/i686-elf/14.2.0/libgcc.a(_umoddi3.o)

.debug_str      0x00000000     0x255b
 .debug_str     0x00000000       0xf6 /home/zaccaria/Scrivania/Proj/ZerOS/build/kernel/c/./include_src/i686/io.obj
 .debug_str     0x000000f6      0x1c6 /home/zaccaria/Scrivania/Proj/ZerOS/build/kernel/c/./include_src/i686/irq.obj
 .debug_str     0x000002bc      0x2f9 /home/zaccaria/Scrivania/Proj/ZerOS/build/kernel/c/./include_src/i686/gdt.obj
 .debug_str     0x000005b5      0xd59 /home/zaccaria/Scrivania/Proj/ZerOS/build/kernel/c/./include_src/i686/isrs_generated.obj
 .debug_str     0x0000130e      0x27c /home/zaccaria/Scrivania/Proj/ZerOS/build/kernel/c/./include_src/i686/idt.obj
 .debug_str     0x0000158a      0x1c2 /home/zaccaria/Scrivania/Proj/ZerOS/build/kernel/c/./include_src/i686/isr.obj
 .debug_str     0x0000174c      0x28f /home/zaccaria/Scrivania/Proj/ZerOS/build/kernel/c/./include_src/i686/pic.obj
 .debug_str     0x000019db      0x3d3 /home/zaccaria/Scrivania/Proj/ZerOS/build/kernel/c/./include_src/std/stdio.obj
 .debug_str     0x00001dae      0x11e /home/zaccaria/Scrivania/Proj/ZerOS/build/kernel/c/./include_src/std/string.obj
 .debug_str     0x00001ecc      0x110 /home/zaccaria/Scrivania/Proj/ZerOS/build/kernel/c/./include_src/hal/hal.obj
 .debug_str     0x00001fdc      0x185 /home/zaccaria/Scrivania/Proj/ZerOS/build/kernel/c/./main.obj
 .debug_str     0x00002161      0x1fd /home/zaccaria/Scrivania/Proj/ZerOS/toolchain/i686-elf/lib/gcc/i686-elf/14.2.0/libgcc.a(_udivdi3.o)
 .debug_str     0x0000235e      0x1fd /home/zaccaria/Scrivania/Proj/ZerOS/toolchain/i686-elf/lib/gcc/i686-elf/14.2.0/libgcc.a(_umoddi3.o)

.debug_line_str
                0x00000000      0xd91
 .debug_line_str
                0x00000000      0x105 /home/zaccaria/Scrivania/Proj/ZerOS/build/kernel/c/./include_src/i686/io.obj
 .debug_line_str
                0x00000105      0x12e /home/zaccaria/Scrivania/Proj/ZerOS/build/kernel/c/./include_src/i686/irq.obj
 .debug_line_str
                0x00000233      0x109 /home/zaccaria/Scrivania/Proj/ZerOS/build/kernel/c/./include_src/i686/gdt.obj
 .debug_line_str
                0x0000033c      0x12a /home/zaccaria/Scrivania/Proj/ZerOS/build/kernel/c/./include_src/i686/isrs_generated.obj
 .debug_line_str
                0x00000466      0x109 /home/zaccaria/Scrivania/Proj/ZerOS/build/kernel/c/./include_src/i686/idt.obj
 .debug_line_str
                0x0000056f      0x128 /home/zaccaria/Scrivania/Proj/ZerOS/build/kernel/c/./include_src/i686/isr.obj
 .debug_line_str
                0x00000697      0x108 /home/zaccaria/Scrivania/Proj/ZerOS/build/kernel/c/./include_src/i686/pic.obj
 .debug_line_str
                0x0000079f      0x129 /home/zaccaria/Scrivania/Proj/ZerOS/build/kernel/c/./include_src/std/stdio.obj
 .debug_line_str
                0x000008c8       0xfd /home/zaccaria/Scrivania/Proj/ZerOS/build/kernel/c/./include_src/std/string.obj
 .debug_line_str
                0x000009c5       0xb5 /home/zaccaria/Scrivania/Proj/ZerOS/build/kernel/c/./include_src/hal/hal.obj
 .debug_line_str
                0x00000a7a      0x11f /home/zaccaria/Scrivania/Proj/ZerOS/build/kernel/c/./main.obj
 .debug_line_str
                0x00000b99       0xfc /home/zaccaria/Scrivania/Proj/ZerOS/toolchain/i686-elf/lib/gcc/i686-elf/14.2.0/libgcc.a(_udivdi3.o)
 .debug_line_str
                0x00000c95       0xfc /home/zaccaria/Scrivania/Proj/ZerOS/toolchain/i686-elf/lib/gcc/i686-elf/14.2.0/libgcc.a(_umoddi3.o)

.comment        0x00000000       0xf7
 .comment       0x00000000       0x13 /home/zaccaria/Scrivania/Proj/ZerOS/build/kernel/c/./include_src/i686/io.obj
 .comment       0x00000013       0x13 /home/zaccaria/Scrivania/Proj/ZerOS/build/kernel/c/./include_src/i686/irq.obj
 .comment       0x00000026       0x13 /home/zaccaria/Scrivania/Proj/ZerOS/build/kernel/c/./include_src/i686/gdt.obj
 .comment       0x00000039       0x13 /home/zaccaria/Scrivania/Proj/ZerOS/build/kernel/c/./include_src/i686/isrs_generated.obj
 .comment       0x0000004c       0x13 /home/zaccaria/Scrivania/Proj/ZerOS/build/kernel/c/./include_src/i686/idt.obj
 .comment       0x0000005f       0x13 /home/zaccaria/Scrivania/Proj/ZerOS/build/kernel/c/./include_src/i686/isr.obj
 .comment       0x00000072       0x13 /home/zaccaria/Scrivania/Proj/ZerOS/build/kernel/c/./include_src/i686/pic.obj
 .comment       0x00000085       0x13 /home/zaccaria/Scrivania/Proj/ZerOS/build/kernel/c/./include_src/std/stdio.obj
 .comment       0x00000098       0x13 /home/zaccaria/Scrivania/Proj/ZerOS/build/kernel/c/./include_src/std/string.obj
 .comment       0x000000ab       0x13 /home/zaccaria/Scrivania/Proj/ZerOS/build/kernel/c/./include_src/hal/hal.obj
 .comment       0x000000be       0x13 /home/zaccaria/Scrivania/Proj/ZerOS/build/kernel/c/./main.obj
 .comment       0x000000d1       0x13 /home/zaccaria/Scrivania/Proj/ZerOS/toolchain/i686-elf/lib/gcc/i686-elf/14.2.0/libgcc.a(_udivdi3.o)
 .comment       0x000000e4       0x13 /home/zaccaria/Scrivania/Proj/ZerOS/toolchain/i686-elf/lib/gcc/i686-elf/14.2.0/libgcc.a(_umoddi3.o)

.debug_frame    0x00000000      0x5c0
 .debug_frame   0x00000000       0x34 /home/zaccaria/Scrivania/Proj/ZerOS/build/kernel/c/./include_src/i686/io.obj
 .debug_frame   0x00000034       0x74 /home/zaccaria/Scrivania/Proj/ZerOS/build/kernel/c/./include_src/i686/irq.obj
 .debug_frame   0x000000a8       0x34 /home/zaccaria/Scrivania/Proj/ZerOS/build/kernel/c/./include_src/i686/gdt.obj
 .debug_frame   0x000000dc       0x34 /home/zaccaria/Scrivania/Proj/ZerOS/build/kernel/c/./include_src/i686/isrs_generated.obj
 .debug_frame   0x00000110       0x94 /home/zaccaria/Scrivania/Proj/ZerOS/build/kernel/c/./include_src/i686/idt.obj
 .debug_frame   0x000001a4       0x74 /home/zaccaria/Scrivania/Proj/ZerOS/build/kernel/c/./include_src/i686/isr.obj
 .debug_frame   0x00000218       0xfc /home/zaccaria/Scrivania/Proj/ZerOS/build/kernel/c/./include_src/i686/pic.obj
 .debug_frame   0x00000314      0x198 /home/zaccaria/Scrivania/Proj/ZerOS/build/kernel/c/./include_src/std/stdio.obj
 .debug_frame   0x000004ac       0x74 /home/zaccaria/Scrivania/Proj/ZerOS/build/kernel/c/./include_src/std/string.obj
 .debug_frame   0x00000520       0x34 /home/zaccaria/Scrivania/Proj/ZerOS/build/kernel/c/./include_src/hal/hal.obj
 .debug_frame   0x00000554       0x6c /home/zaccaria/Scrivania/Proj/ZerOS/build/kernel/c/./main.obj

.debug_rnglists
                0x00000000       0x62
 .debug_rnglists
                0x00000000       0x19 /home/zaccaria/Scrivania/Proj/ZerOS/build/kernel/c/./main.obj
 .debug_rnglists
                0x00000019       0x2a /home/zaccaria/Scrivania/Proj/ZerOS/toolchain/i686-elf/lib/gcc/i686-elf/14.2.0/libgcc.a(_udivdi3.o)
 .debug_rnglists
                0x00000043       0x1f /home/zaccaria/Scrivania/Proj/ZerOS/toolchain/i686-elf/lib/gcc/i686-elf/14.2.0/libgcc.a(_umoddi3.o)

.debug_loclists
                0x00000000      0x978
 .debug_loclists
                0x00000000      0x50c /home/zaccaria/Scrivania/Proj/ZerOS/toolchain/i686-elf/lib/gcc/i686-elf/14.2.0/libgcc.a(_udivdi3.o)
 .debug_loclists
                0x0000050c      0x46c /home/zaccaria/Scrivania/Proj/ZerOS/toolchain/i686-elf/lib/gcc/i686-elf/14.2.0/libgcc.a(_umoddi3.o)
